target datalayout = "e-m:e-p270:32:32-p271:32:32-p272:64:64-i64:64-i128:128-f80:128-n8:16:32:64-S128"
target triple = "x86_64-unknown-linux-gnu"

%struct.QemuMutex = type { %union.pthread_mutex_t, i8 }
%union.pthread_mutex_t = type { %struct.__pthread_mutex_s }
%struct.__pthread_mutex_s = type { i32, i32, i32, i32, i32, i16, i16, %struct.__pthread_internal_list }
%struct.__pthread_internal_list = type { ptr, ptr }
%struct.QTailQLink = type { ptr, ptr }
%struct.CoQueue = type { %struct.anon.8 }
%struct.anon.8 = type { ptr, ptr }
%struct.MirrorBlockJob = type { %struct.BlockJob, ptr, ptr, ptr, ptr, ptr, ptr, ptr, i8, i32, i8, i32, i32, i32, i8, i8, i64, i64, i64, ptr, ptr, ptr, ptr, %struct.anon.14, i32, i64, ptr, i32, i64, %union.anon.15, i32, i8, i32, i32, i8, i32, i64, i8, i8 }
%struct.BlockJob = type { %struct.Job, i32, i64, %struct.RateLimit, ptr, %struct.Notifier, %struct.Notifier, %struct.Notifier, %struct.Notifier, %struct.Notifier, ptr }
%struct.Job = type { ptr, ptr, ptr, i8, i8, ptr, ptr, %struct.ProgressMeter, ptr, i32, i32, %struct.QEMUTimer, i32, i8, i8, i8, i8, i8, i8, i32, ptr, %struct.NotifierList, %struct.NotifierList, %struct.NotifierList, %struct.NotifierList, %struct.NotifierList, %struct.anon.11, ptr, %struct.anon.12 }
%struct.ProgressMeter = type { i64, i64, %struct.QemuMutex }
%struct.QEMUTimer = type { i64, ptr, ptr, ptr, ptr, i32, i32 }
%struct.NotifierList = type { %struct.anon.10 }
%struct.anon.10 = type { ptr }
%struct.anon.11 = type { ptr, ptr }
%struct.anon.12 = type { ptr, ptr }
%struct.RateLimit = type { %struct.QemuMutex, i64, i64, i64, i64, i64 }
%struct.Notifier = type { ptr, %struct.anon.13 }
%struct.anon.13 = type { ptr, ptr }
%struct.anon.14 = type { ptr, ptr }
%union.anon.15 = type { %struct.QTailQLink }
%struct.QEMUIOVector = type { ptr, i32, %union.anon.18 }
%union.anon.18 = type { %struct.anon.19 }
%struct.anon.19 = type { i32, %struct.iovec }
%struct.iovec = type { ptr, i64 }
%struct.MirrorOp = type { ptr, %struct.QEMUIOVector, i64, i64, ptr, i8, i8, i8, %struct.CoQueue, ptr, ptr, %union.anon.21 }
%union.anon.21 = type { %struct.QTailQLink }

; Function Attrs: nounwind sspstrong uwtable
define internal ptr @active_write_prepare(ptr noundef %s, i64 noundef %offset, i64 noundef %bytes) #0 {
entry:
  %s.addr = alloca ptr, align 8
  %offset.addr = alloca i64, align 8
  %bytes.addr = alloca i64, align 8
  %op = alloca ptr, align 8
  %start_chunk = alloca i64, align 8
  %end_chunk = alloca i64, align 8
  %.compoundliteral = alloca %struct.MirrorOp, align 8
  store ptr %s, ptr %s.addr, align 8
  store i64 %offset, ptr %offset.addr, align 8
  store i64 %bytes, ptr %bytes.addr, align 8
  %0 = load i64, ptr %offset.addr, align 8
  %1 = load ptr, ptr %s.addr, align 8
  %granularity = getelementptr inbounds %struct.MirrorBlockJob, ptr %1, i32 0, i32 16
  %2 = load i64, ptr %granularity, align 8
  %div = udiv i64 %0, %2
  store i64 %div, ptr %start_chunk, align 8
  %3 = load i64, ptr %offset.addr, align 8
  %4 = load i64, ptr %bytes.addr, align 8
  %add = add i64 %3, %4
  %5 = load ptr, ptr %s.addr, align 8
  %granularity1 = getelementptr inbounds %struct.MirrorBlockJob, ptr %5, i32 0, i32 16
  %6 = load i64, ptr %granularity1, align 8
  %add2 = add i64 %add, %6
  %sub = sub i64 %add2, 1
  %7 = load ptr, ptr %s.addr, align 8
  %granularity3 = getelementptr inbounds %struct.MirrorBlockJob, ptr %7, i32 0, i32 16
  %8 = load i64, ptr %granularity3, align 8
  %div4 = udiv i64 %sub, %8
  store i64 %div4, ptr %end_chunk, align 8
  %call = call noalias ptr @g_malloc_n(i64 noundef 1, i64 noundef 128) #10
  store ptr %call, ptr %op, align 8
  %9 = load ptr, ptr %op, align 8
  %s5 = getelementptr inbounds %struct.MirrorOp, ptr %.compoundliteral, i32 0, i32 0
  %10 = load ptr, ptr %s.addr, align 8
  store ptr %10, ptr %s5, align 8
  %qiov = getelementptr inbounds %struct.MirrorOp, ptr %.compoundliteral, i32 0, i32 1
  call void @llvm.memset.p0.i64(ptr align 8 %qiov, i8 0, i64 40, i1 false)
  %offset6 = getelementptr inbounds %struct.MirrorOp, ptr %.compoundliteral, i32 0, i32 2
  %11 = load i64, ptr %offset.addr, align 8
  store i64 %11, ptr %offset6, align 8
  %bytes7 = getelementptr inbounds %struct.MirrorOp, ptr %.compoundliteral, i32 0, i32 3
  %12 = load i64, ptr %bytes.addr, align 8
  store i64 %12, ptr %bytes7, align 8
  %bytes_handled = getelementptr inbounds %struct.MirrorOp, ptr %.compoundliteral, i32 0, i32 4
  store ptr null, ptr %bytes_handled, align 8
  %is_pseudo_op = getelementptr inbounds %struct.MirrorOp, ptr %.compoundliteral, i32 0, i32 5
  store i8 0, ptr %is_pseudo_op, align 8
  %is_active_write = getelementptr inbounds %struct.MirrorOp, ptr %.compoundliteral, i32 0, i32 6
  store i8 1, ptr %is_active_write, align 1
  %is_in_flight = getelementptr inbounds %struct.MirrorOp, ptr %.compoundliteral, i32 0, i32 7
  store i8 1, ptr %is_in_flight, align 2
  %waiting_requests = getelementptr inbounds %struct.MirrorOp, ptr %.compoundliteral, i32 0, i32 8
  call void @llvm.memset.p0.i64(ptr align 8 %waiting_requests, i8 0, i64 16, i1 false)
  %co = getelementptr inbounds %struct.MirrorOp, ptr %.compoundliteral, i32 0, i32 9
  %call8 = call ptr @qemu_coroutine_self()
  store ptr %call8, ptr %co, align 8
  %waiting_for_op = getelementptr inbounds %struct.MirrorOp, ptr %.compoundliteral, i32 0, i32 10
  store ptr null, ptr %waiting_for_op, align 8
  %next = getelementptr inbounds %struct.MirrorOp, ptr %.compoundliteral, i32 0, i32 11
  call void @llvm.memset.p0.i64(ptr align 8 %next, i8 0, i64 16, i1 false)
  call void @llvm.memcpy.p0.p0.i64(ptr align 8 %9, ptr align 8 %.compoundliteral, i64 128, i1 false)
  %13 = load ptr, ptr %op, align 8
  %waiting_requests9 = getelementptr inbounds %struct.MirrorOp, ptr %13, i32 0, i32 8
  call void @qemu_co_queue_init(ptr noundef %waiting_requests9)
  br label %do.body

do.body:                                          ; preds = %entry
  %14 = load ptr, ptr %op, align 8
  %next10 = getelementptr inbounds %struct.MirrorOp, ptr %14, i32 0, i32 11
  store ptr null, ptr %next10, align 8
  %15 = load ptr, ptr %s.addr, align 8
  %ops_in_flight = getelementptr inbounds %struct.MirrorBlockJob, ptr %15, i32 0, i32 29
  %tql_prev = getelementptr inbounds %struct.QTailQLink, ptr %ops_in_flight, i32 0, i32 1
  %16 = load ptr, ptr %tql_prev, align 8
  %17 = load ptr, ptr %op, align 8
  %next11 = getelementptr inbounds %struct.MirrorOp, ptr %17, i32 0, i32 11
  %tql_prev12 = getelementptr inbounds %struct.QTailQLink, ptr %next11, i32 0, i32 1
  store ptr %16, ptr %tql_prev12, align 8
  %18 = load ptr, ptr %op, align 8
  %19 = load ptr, ptr %s.addr, align 8
  %ops_in_flight13 = getelementptr inbounds %struct.MirrorBlockJob, ptr %19, i32 0, i32 29
  %tql_prev14 = getelementptr inbounds %struct.QTailQLink, ptr %ops_in_flight13, i32 0, i32 1
  %20 = load ptr, ptr %tql_prev14, align 8
  %tql_next = getelementptr inbounds %struct.QTailQLink, ptr %20, i32 0, i32 0
  store ptr %18, ptr %tql_next, align 8
  %21 = load ptr, ptr %op, align 8
  %next15 = getelementptr inbounds %struct.MirrorOp, ptr %21, i32 0, i32 11
  %22 = load ptr, ptr %s.addr, align 8
  %ops_in_flight16 = getelementptr inbounds %struct.MirrorBlockJob, ptr %22, i32 0, i32 29
  %tql_prev17 = getelementptr inbounds %struct.QTailQLink, ptr %ops_in_flight16, i32 0, i32 1
  store ptr %next15, ptr %tql_prev17, align 8
  br label %do.end

do.end:                                           ; preds = %do.body
  %23 = load ptr, ptr %s.addr, align 8
  %in_active_write_counter = getelementptr inbounds %struct.MirrorBlockJob, ptr %23, i32 0, i32 35
  %24 = load i32, ptr %in_active_write_counter, align 4
  %inc = add i32 %24, 1
  store i32 %inc, ptr %in_active_write_counter, align 4
  %25 = load ptr, ptr %op, align 8
  %26 = load ptr, ptr %s.addr, align 8
  %27 = load i64, ptr %offset.addr, align 8
  %28 = load i64, ptr %bytes.addr, align 8
  call void @mirror_wait_on_conflicts(ptr noundef %25, ptr noundef %26, i64 noundef %27, i64 noundef %28)
  %29 = load ptr, ptr %s.addr, align 8
  %in_flight_bitmap = getelementptr inbounds %struct.MirrorBlockJob, ptr %29, i32 0, i32 26
  %30 = load ptr, ptr %in_flight_bitmap, align 8
  %31 = load i64, ptr %start_chunk, align 8
  %32 = load i64, ptr %end_chunk, align 8
  %33 = load i64, ptr %start_chunk, align 8
  %sub18 = sub i64 %32, %33
  call void @bitmap_set(ptr noundef %30, i64 noundef %31, i64 noundef %sub18)
  %34 = load ptr, ptr %op, align 8
  ret ptr %34
}