; Function Attrs: nounwind sspstrong uwtable
define internal noundef ptr @active_write_prepare(ptr noundef %s, i64 noundef %offset, i64 noundef %bytes) #0 {
entry:
  %.compoundliteral.sroa.9 = alloca [21 x i8], align 1
  %granularity = getelementptr inbounds nuw i8, ptr %s, i64 608
  %0 = load i64, ptr %granularity, align 8
  %div = udiv i64 %offset, %0
  %add = add i64 %offset, -1
  %add2 = add i64 %add, %bytes
  %sub = add i64 %add2, %0
  %div4 = udiv i64 %sub, %0
  %call = tail call noalias dereferenceable_or_null(128) ptr @g_malloc_n(i64 noundef 1, i64 noundef 128) #14
  %.compoundliteral.sroa.9.5.waiting_requests.sroa_idx24 = getelementptr inbounds nuw i8, ptr %.compoundliteral.sroa.9, i64 5
  call void @llvm.memset.p0.i64(ptr noundef nonnull align 1 dereferenceable(16) %.compoundliteral.sroa.9.5.waiting_requests.sroa_idx24, i8 0, i64 16, i1 false)
  %call8 = tail call ptr @qemu_coroutine_self() #12
  store ptr %s, ptr %call, align 8
  %.compoundliteral.sroa.2.0..sroa_idx = getelementptr inbounds nuw i8, ptr %call, i64 8
  tail call void @llvm.memset.p0.i64(ptr noundef nonnull align 8 dereferenceable(40) %.compoundliteral.sroa.2.0..sroa_idx, i8 0, i64 40, i1 false)
  %.compoundliteral.sroa.3.0..sroa_idx = getelementptr inbounds nuw i8, ptr %call, i64 48
  store i64 %offset, ptr %.compoundliteral.sroa.3.0..sroa_idx, align 8
  %.compoundliteral.sroa.4.0..sroa_idx = getelementptr inbounds nuw i8, ptr %call, i64 56
  store i64 %bytes, ptr %.compoundliteral.sroa.4.0..sroa_idx, align 8
  %.compoundliteral.sroa.5.0..sroa_idx = getelementptr inbounds nuw i8, ptr %call, i64 64
  store ptr null, ptr %.compoundliteral.sroa.5.0..sroa_idx, align 8
  %.compoundliteral.sroa.6.0..sroa_idx = getelementptr inbounds nuw i8, ptr %call, i64 72
  store i8 0, ptr %.compoundliteral.sroa.6.0..sroa_idx, align 8
  %.compoundliteral.sroa.7.0..sroa_idx = getelementptr inbounds nuw i8, ptr %call, i64 73
  store i8 1, ptr %.compoundliteral.sroa.7.0..sroa_idx, align 1
  %.compoundliteral.sroa.8.0..sroa_idx = getelementptr inbounds nuw i8, ptr %call, i64 74
  store i8 1, ptr %.compoundliteral.sroa.8.0..sroa_idx, align 2
  %.compoundliteral.sroa.9.0..sroa_idx = getelementptr inbounds nuw i8, ptr %call, i64 75
  call void @llvm.memcpy.p0.p0.i64(ptr noundef nonnull align 1 dereferenceable(21) %.compoundliteral.sroa.9.0..sroa_idx, ptr noundef nonnull align 1 dereferenceable(21) %.compoundliteral.sroa.9, i64 21, i1 false)
  %.compoundliteral.sroa.10.0..sroa_idx = getelementptr inbounds nuw i8, ptr %call, i64 96
  store ptr %call8, ptr %.compoundliteral.sroa.10.0..sroa_idx, align 8
  %.compoundliteral.sroa.11.0..sroa_idx = getelementptr inbounds nuw i8, ptr %call, i64 104
  %.compoundliteral.sroa.12.0..sroa_idx = getelementptr inbounds nuw i8, ptr %call, i64 112
  %waiting_requests9 = getelementptr inbounds nuw i8, ptr %call, i64 80
  tail call void @llvm.memset.p0.i64(ptr noundef nonnull align 8 dereferenceable(24) %.compoundliteral.sroa.11.0..sroa_idx, i8 0, i64 24, i1 false)
  tail call void @qemu_co_queue_init(ptr noundef nonnull %waiting_requests9) #12
  store ptr null, ptr %.compoundliteral.sroa.12.0..sroa_idx, align 8
  %tql_prev = getelementptr inbounds nuw i8, ptr %s, i64 728
  %1 = load ptr, ptr %tql_prev, align 8
  %tql_prev12 = getelementptr inbounds nuw i8, ptr %call, i64 120
  store ptr %1, ptr %tql_prev12, align 8
  store ptr %call, ptr %1, align 8
  store ptr %.compoundliteral.sroa.12.0..sroa_idx, ptr %tql_prev, align 8
  %in_active_write_counter = getelementptr inbounds nuw i8, ptr %s, i64 756
  %2 = load i32, ptr %in_active_write_counter, align 4
  %inc = add i32 %2, 1
  store i32 %inc, ptr %in_active_write_counter, align 4
  tail call void @mirror_wait_on_conflicts(ptr noundef nonnull %call, ptr noundef %s, i64 noundef %offset, i64 noundef %bytes)
  %in_flight_bitmap = getelementptr inbounds nuw i8, ptr %s, i64 696
  %3 = load ptr, ptr %in_flight_bitmap, align 8
  %sub18 = sub i64 %div4, %div
  tail call void @bitmap_set(ptr noundef %3, i64 noundef %div, i64 noundef %sub18) #12
  ret ptr %call
}